target datalayout = "e-m:e-p270:32:32-p271:32:32-p272:64:64-i64:64-i128:128-f80:128-n8:16:32:64-S128"
target triple = "x86_64-unknown-linux-gnu"

%union.anon = type { %struct.QTailQLink }
%struct.QTailQLink = type { ptr, ptr }
%struct.FWBootEntry = type { %union.anon.0, i32, ptr, ptr }
%union.anon.0 = type { %struct.QTailQLink }
%struct.BootIndexProperty = type { ptr, ptr, ptr }

@fw_boot_order = internal global %union.anon { %struct.QTailQLink { ptr null, ptr @fw_boot_order } }, align 8

; Function Attrs: nounwind sspstrong uwtable
define dso_local void @del_boot_device_path(ptr noundef %dev, ptr noundef %suffix) #0 {
entry:
  %dev.addr = alloca ptr, align 8
  %suffix.addr = alloca ptr, align 8
  %i = alloca ptr, align 8
  store ptr %dev, ptr %dev.addr, align 8
  store ptr %suffix, ptr %suffix.addr, align 8
  %0 = load ptr, ptr %dev.addr, align 8
  %cmp = icmp eq ptr %0, null
  br i1 %cmp, label %if.then, label %if.end

if.then:                                          ; preds = %entry
  br label %for.end

if.end:                                           ; preds = %entry
  %1 = load ptr, ptr @fw_boot_order, align 8
  store ptr %1, ptr %i, align 8
  br label %for.cond

for.cond:                                         ; preds = %for.inc, %if.end
  %2 = load ptr, ptr %i, align 8
  %tobool = icmp ne ptr %2, null
  br i1 %tobool, label %for.body, label %for.end

for.body:                                         ; preds = %for.cond
  %3 = load ptr, ptr %suffix.addr, align 8
  %tobool1 = icmp ne ptr %3, null
  br i1 %tobool1, label %lor.lhs.false, label %land.lhs.true

lor.lhs.false:                                    ; preds = %for.body
  %4 = load ptr, ptr %i, align 8
  %suffix2 = getelementptr inbounds %struct.FWBootEntry, ptr %4, i32 0, i32 3
  %5 = load ptr, ptr %suffix2, align 8
  %6 = load ptr, ptr %suffix.addr, align 8
  %call = call i32 @g_strcmp0(ptr noundef %5, ptr noundef %6)
  %tobool3 = icmp ne i32 %call, 0
  br i1 %tobool3, label %if.end25, label %land.lhs.true

land.lhs.true:                                    ; preds = %lor.lhs.false, %for.body
  %7 = load ptr, ptr %i, align 8
  %dev4 = getelementptr inbounds %struct.FWBootEntry, ptr %7, i32 0, i32 2
  %8 = load ptr, ptr %dev4, align 8
  %9 = load ptr, ptr %dev.addr, align 8
  %cmp5 = icmp eq ptr %8, %9
  br i1 %cmp5, label %if.then6, label %if.end25

if.then6:                                         ; preds = %land.lhs.true
  br label %do.body

do.body:                                          ; preds = %if.then6
  %10 = load ptr, ptr %i, align 8
  %link = getelementptr inbounds %struct.FWBootEntry, ptr %10, i32 0, i32 0
  %11 = load ptr, ptr %link, align 8
  %cmp7 = icmp ne ptr %11, null
  br i1 %cmp7, label %if.then8, label %if.else

if.then8:                                         ; preds = %do.body
  %12 = load ptr, ptr %i, align 8
  %link9 = getelementptr inbounds %struct.FWBootEntry, ptr %12, i32 0, i32 0
  %tql_prev = getelementptr inbounds %struct.QTailQLink, ptr %link9, i32 0, i32 1
  %13 = load ptr, ptr %tql_prev, align 8
  %14 = load ptr, ptr %i, align 8
  %link10 = getelementptr inbounds %struct.FWBootEntry, ptr %14, i32 0, i32 0
  %15 = load ptr, ptr %link10, align 8
  %link11 = getelementptr inbounds %struct.FWBootEntry, ptr %15, i32 0, i32 0
  %tql_prev12 = getelementptr inbounds %struct.QTailQLink, ptr %link11, i32 0, i32 1
  store ptr %13, ptr %tql_prev12, align 8
  br label %if.end15

if.else:                                          ; preds = %do.body
  %16 = load ptr, ptr %i, align 8
  %link13 = getelementptr inbounds %struct.FWBootEntry, ptr %16, i32 0, i32 0
  %tql_prev14 = getelementptr inbounds %struct.QTailQLink, ptr %link13, i32 0, i32 1
  %17 = load ptr, ptr %tql_prev14, align 8
  %18 = getelementptr inbounds %struct.QTailQLink, ptr @fw_boot_order, i32 0, i32 1
  store ptr %17, ptr %18, align 8
  br label %if.end15

if.end15:                                         ; preds = %if.else, %if.then8
  %19 = load ptr, ptr %i, align 8
  %link16 = getelementptr inbounds %struct.FWBootEntry, ptr %19, i32 0, i32 0
  %20 = load ptr, ptr %link16, align 8
  %21 = load ptr, ptr %i, align 8
  %link17 = getelementptr inbounds %struct.FWBootEntry, ptr %21, i32 0, i32 0
  %tql_prev18 = getelementptr inbounds %struct.QTailQLink, ptr %link17, i32 0, i32 1
  %22 = load ptr, ptr %tql_prev18, align 8
  %tql_next = getelementptr inbounds %struct.QTailQLink, ptr %22, i32 0, i32 0
  store ptr %20, ptr %tql_next, align 8
  %23 = load ptr, ptr %i, align 8
  %link19 = getelementptr inbounds %struct.FWBootEntry, ptr %23, i32 0, i32 0
  %tql_prev20 = getelementptr inbounds %struct.QTailQLink, ptr %link19, i32 0, i32 1
  store ptr null, ptr %tql_prev20, align 8
  %24 = load ptr, ptr %i, align 8
  %link21 = getelementptr inbounds %struct.FWBootEntry, ptr %24, i32 0, i32 0
  %tql_next22 = getelementptr inbounds %struct.QTailQLink, ptr %link21, i32 0, i32 0
  store ptr null, ptr %tql_next22, align 8
  %25 = load ptr, ptr %i, align 8
  %link23 = getelementptr inbounds %struct.FWBootEntry, ptr %25, i32 0, i32 0
  store ptr null, ptr %link23, align 8
  br label %do.end

do.end:                                           ; preds = %if.end15
  %26 = load ptr, ptr %i, align 8
  %suffix24 = getelementptr inbounds %struct.FWBootEntry, ptr %26, i32 0, i32 3
  %27 = load ptr, ptr %suffix24, align 8
  call void @g_free(ptr noundef %27)
  %28 = load ptr, ptr %i, align 8
  call void @g_free(ptr noundef %28)
  br label %for.end

if.end25:                                         ; preds = %land.lhs.true, %lor.lhs.false
  br label %for.inc

for.inc:                                          ; preds = %if.end25
  %29 = load ptr, ptr %i, align 8
  %link26 = getelementptr inbounds %struct.FWBootEntry, ptr %29, i32 0, i32 0
  %30 = load ptr, ptr %link26, align 8
  store ptr %30, ptr %i, align 8
  br label %for.cond, !llvm.loop !8

for.end:                                          ; preds = %do.end, %for.cond, %if.then
  ret void
}

; Function Attrs: nounwind sspstrong uwtable
define internal void @property_release_bootindex(ptr noundef %obj, ptr noundef %name, ptr noundef %opaque) #0 {
entry:
  %obj.addr = alloca ptr, align 8
  %name.addr = alloca ptr, align 8
  %opaque.addr = alloca ptr, align 8
  %prop = alloca ptr, align 8
  store ptr %obj, ptr %obj.addr, align 8
  store ptr %name, ptr %name.addr, align 8
  store ptr %opaque, ptr %opaque.addr, align 8
  %0 = load ptr, ptr %opaque.addr, align 8
  store ptr %0, ptr %prop, align 8
  %1 = load ptr, ptr %prop, align 8
  %dev = getelementptr inbounds %struct.BootIndexProperty, ptr %1, i32 0, i32 2
  %2 = load ptr, ptr %dev, align 8
  %3 = load ptr, ptr %prop, align 8
  %suffix = getelementptr inbounds %struct.BootIndexProperty, ptr %3, i32 0, i32 1
  %4 = load ptr, ptr %suffix, align 8
  call void @del_boot_device_path(ptr noundef %2, ptr noundef %4)
  %5 = load ptr, ptr %prop, align 8
  call void @g_free(ptr noundef %5)
  ret void
}