; Function Attrs: nounwind sspstrong uwtable
define internal void @property_release_bootindex(ptr readnone captures(none) %obj, ptr readnone captures(none) %name, ptr noundef %opaque) #1 {
entry:
  %dev = getelementptr inbounds nuw i8, ptr %opaque, i64 16
  %0 = load ptr, ptr %dev, align 8
  %suffix = getelementptr inbounds nuw i8, ptr %opaque, i64 8
  %1 = load ptr, ptr %suffix, align 8
  %cmp.i = icmp eq ptr %0, null
  br i1 %cmp.i, label %del_boot_device_path.exit, label %for.cond.preheader.i

for.cond.preheader.i:                             ; preds = %entry
  %i.018.i = load ptr, ptr @fw_boot_order, align 8
  %tobool.not19.i = icmp eq ptr %i.018.i, null
  br i1 %tobool.not19.i, label %del_boot_device_path.exit, label %for.body.lr.ph.i

for.body.lr.ph.i:                                 ; preds = %for.cond.preheader.i
  %tobool1.not.i = icmp eq ptr %1, null
  br i1 %tobool1.not.i, label %for.body.us.i, label %for.body.i

for.body.us.i:                                    ; preds = %for.body.lr.ph.i, %for.inc.us.i
  %i.020.us.i = phi ptr [ %i.0.us.i, %for.inc.us.i ], [ %i.018.i, %for.body.lr.ph.i ]
  %dev4.us.i = getelementptr inbounds nuw i8, ptr %i.020.us.i, i64 24
  %2 = load ptr, ptr %dev4.us.i, align 8
  %cmp5.us.i = icmp eq ptr %2, %0
  br i1 %cmp5.us.i, label %do.body.i, label %for.inc.us.i

for.inc.us.i:                                     ; preds = %for.body.us.i
  %i.0.us.i = load ptr, ptr %i.020.us.i, align 8
  %tobool.not.us.i = icmp eq ptr %i.0.us.i, null
  br i1 %tobool.not.us.i, label %del_boot_device_path.exit, label %for.body.us.i, !llvm.loop !8

for.body.i:                                       ; preds = %for.body.lr.ph.i, %for.inc.i
  %i.020.i = phi ptr [ %i.0.i, %for.inc.i ], [ %i.018.i, %for.body.lr.ph.i ]
  %suffix2.i = getelementptr inbounds nuw i8, ptr %i.020.i, i64 32
  %3 = load ptr, ptr %suffix2.i, align 8
  %call.i = tail call i32 @g_strcmp0(ptr noundef %3, ptr noundef nonnull %1) #11
  %tobool3.not.i = icmp eq i32 %call.i, 0
  br i1 %tobool3.not.i, label %land.lhs.true.i, label %for.inc.i

land.lhs.true.i:                                  ; preds = %for.body.i
  %dev4.i = getelementptr inbounds nuw i8, ptr %i.020.i, i64 24
  %4 = load ptr, ptr %dev4.i, align 8
  %cmp5.i = icmp eq ptr %4, %0
  br i1 %cmp5.i, label %do.body.i, label %for.inc.i

do.body.i:                                        ; preds = %land.lhs.true.i, %for.body.us.i
  %.us-phi.i = phi ptr [ %i.020.us.i, %for.body.us.i ], [ %i.020.i, %land.lhs.true.i ]
  %5 = load ptr, ptr %.us-phi.i, align 8
  %cmp7.not.i = icmp eq ptr %5, null
  %tql_prev14.i = getelementptr inbounds nuw i8, ptr %.us-phi.i, i64 8
  %6 = load ptr, ptr %tql_prev14.i, align 8
  br i1 %cmp7.not.i, label %if.else.i, label %if.then8.i

if.then8.i:                                       ; preds = %do.body.i
  %tql_prev12.i = getelementptr inbounds nuw i8, ptr %5, i64 8
  store ptr %6, ptr %tql_prev12.i, align 8
  br label %if.end15.i

if.else.i:                                        ; preds = %do.body.i
  store ptr %6, ptr getelementptr inbounds nuw (i8, ptr @fw_boot_order, i64 8), align 8
  br label %if.end15.i

if.end15.i:                                       ; preds = %if.else.i, %if.then8.i
  %7 = load ptr, ptr %.us-phi.i, align 8
  store ptr %7, ptr %6, align 8
  %suffix24.i = getelementptr inbounds nuw i8, ptr %.us-phi.i, i64 32
  tail call void @llvm.memset.p0.i64(ptr noundef nonnull align 8 dereferenceable(16) %.us-phi.i, i8 0, i64 16, i1 false)
  %8 = load ptr, ptr %suffix24.i, align 8
  tail call void @g_free(ptr noundef %8) #11
  tail call void @g_free(ptr noundef nonnull %.us-phi.i) #11
  br label %del_boot_device_path.exit

for.inc.i:                                        ; preds = %land.lhs.true.i, %for.body.i
  %i.0.i = load ptr, ptr %i.020.i, align 8
  %tobool.not.i = icmp eq ptr %i.0.i, null
  br i1 %tobool.not.i, label %del_boot_device_path.exit, label %for.body.i, !llvm.loop !8

del_boot_device_path.exit:                        ; preds = %for.inc.i, %for.inc.us.i, %entry, %for.cond.preheader.i, %if.end15.i
  tail call void @g_free(ptr noundef %opaque) #11
  ret void
}